; Function Attrs: mustprogress nounwind uwtable
define hidden void @_ZN9CDSConfig28stop_using_full_module_graphEPKc(ptr noundef %0) local_unnamed_addr #2 align 2 {
  %2 = load i8, ptr @_ZN9CDSConfig27_is_using_full_module_graphE, align 1
  %3 = trunc i8 %2 to i1
  br i1 %3, label %4, label %8

4:                                                ; preds = %1
  store i8 0, ptr @_ZN9CDSConfig27_is_using_full_module_graphE, align 1
  %.not = icmp eq ptr %0, null
  br i1 %.not, label %8, label %5

5:                                                ; preds = %4
  %6 = load volatile ptr, ptr getelementptr inbounds (i8, ptr @_ZN16LogTagSetMappingILN6LogTag4typeE14ELS1_0ELS1_0ELS1_0ELS1_0ELS1_0EE7_tagsetE, i64 64), align 8
  %.not2 = icmp eq ptr %6, null
  br i1 %.not2, label %8, label %7

7:                                                ; preds = %5
  tail call void (ptr, ...) @_ZN7LogImplILN6LogTag4typeE14ELS1_0ELS1_0ELS1_0ELS1_0ELS1_0EE5writeILN8LogLevel4typeE3EEEvPKcz(ptr noundef nonnull @.str.32, ptr noundef nonnull %0)
  br label %8

8:                                                ; preds = %4, %5, %7, %1
  ret void
}